; ModuleID = '12/961.c'
source_filename = "12/961.c"
target datalayout = "e-m:e-p270:32:32-p271:32:32-p272:64:64-i64:64-f80:128-n8:16:32:64-S128"
target triple = "x86_64-pc-linux-gnu"

@.str = private unnamed_addr constant [3 x i8] c"%d\00", align 1
@.str.1 = private unnamed_addr constant [4 x i8] c"%d\0A\00", align 1

; Function Attrs: noinline nounwind uwtable
define dso_local i32 @main() #0 {
  %1 = alloca i32, align 4
  %2 = alloca i32, align 4
  %3 = alloca i32, align 4
  %4 = alloca i32, align 4
  %5 = alloca [100 x [16 x i32]], align 16
  %6 = alloca i32, align 4
  %7 = alloca i32, align 4
  %8 = alloca [100 x i32], align 16
  store i32 0, i32* %1, align 4
  %9 = bitcast [100 x i32]* %8 to i8*
  call void @llvm.memset.p0i8.i64(i8* align 16 %9, i8 0, i64 400, i1 false)
  store i32 0, i32* %2, align 4
  br label %10

10:                                               ; preds = %89, %0
  %11 = load i32, i32* %2, align 4
  %12 = sext i32 %11 to i64
  %13 = getelementptr inbounds [100 x [16 x i32]], [100 x [16 x i32]]* %5, i64 0, i64 %12
  %14 = getelementptr inbounds [16 x i32], [16 x i32]* %13, i64 0, i64 0
  %15 = call i32 (i8*, ...) @__isoc99_scanf(i8* getelementptr inbounds ([3 x i8], [3 x i8]* @.str, i64 0, i64 0), i32* %14)
  %16 = load i32, i32* %2, align 4
  %17 = sext i32 %16 to i64
  %18 = getelementptr inbounds [100 x [16 x i32]], [100 x [16 x i32]]* %5, i64 0, i64 %17
  %19 = getelementptr inbounds [16 x i32], [16 x i32]* %18, i64 0, i64 0
  %20 = load i32, i32* %19, align 16
  %21 = icmp eq i32 %20, -1
  br i1 %21, label %22, label %23

22:                                               ; preds = %10
  br label %92

23:                                               ; preds = %10
  store i32 1, i32* %3, align 4
  br label %24

24:                                               ; preds = %42, %23
  %25 = load i32, i32* %2, align 4
  %26 = sext i32 %25 to i64
  %27 = getelementptr inbounds [100 x [16 x i32]], [100 x [16 x i32]]* %5, i64 0, i64 %26
  %28 = load i32, i32* %3, align 4
  %29 = sext i32 %28 to i64
  %30 = getelementptr inbounds [16 x i32], [16 x i32]* %27, i64 0, i64 %29
  %31 = call i32 (i8*, ...) @__isoc99_scanf(i8* getelementptr inbounds ([3 x i8], [3 x i8]* @.str, i64 0, i64 0), i32* %30)
  %32 = load i32, i32* %2, align 4
  %33 = sext i32 %32 to i64
  %34 = getelementptr inbounds [100 x [16 x i32]], [100 x [16 x i32]]* %5, i64 0, i64 %33
  %35 = load i32, i32* %3, align 4
  %36 = sext i32 %35 to i64
  %37 = getelementptr inbounds [16 x i32], [16 x i32]* %34, i64 0, i64 %36
  %38 = load i32, i32* %37, align 4
  %39 = icmp eq i32 %38, 0
  br i1 %39, label %40, label %41

40:                                               ; preds = %24
  br label %45

41:                                               ; preds = %24
  br label %42

42:                                               ; preds = %41
  %43 = load i32, i32* %3, align 4
  %44 = add nsw i32 %43, 1
  store i32 %44, i32* %3, align 4
  br label %24

45:                                               ; preds = %40
  store i32 0, i32* %4, align 4
  br label %46

46:                                               ; preds = %85, %45
  %47 = load i32, i32* %4, align 4
  %48 = load i32, i32* %3, align 4
  %49 = sub nsw i32 %48, 1
  %50 = icmp sle i32 %47, %49
  br i1 %50, label %51, label %88

51:                                               ; preds = %46
  store i32 0, i32* %6, align 4
  br label %52

52:                                               ; preds = %81, %51
  %53 = load i32, i32* %6, align 4
  %54 = load i32, i32* %3, align 4
  %55 = sub nsw i32 %54, 1
  %56 = icmp sle i32 %53, %55
  br i1 %56, label %57, label %84

57:                                               ; preds = %52
  %58 = load i32, i32* %2, align 4
  %59 = sext i32 %58 to i64
  %60 = getelementptr inbounds [100 x [16 x i32]], [100 x [16 x i32]]* %5, i64 0, i64 %59
  %61 = load i32, i32* %6, align 4
  %62 = sext i32 %61 to i64
  %63 = getelementptr inbounds [16 x i32], [16 x i32]* %60, i64 0, i64 %62
  %64 = load i32, i32* %63, align 4
  %65 = load i32, i32* %2, align 4
  %66 = sext i32 %65 to i64
  %67 = getelementptr inbounds [100 x [16 x i32]], [100 x [16 x i32]]* %5, i64 0, i64 %66
  %68 = load i32, i32* %4, align 4
  %69 = sext i32 %68 to i64
  %70 = getelementptr inbounds [16 x i32], [16 x i32]* %67, i64 0, i64 %69
  %71 = load i32, i32* %70, align 4
  %72 = mul nsw i32 2, %71
  %73 = icmp eq i32 %64, %72
  br i1 %73, label %74, label %80

74:                                               ; preds = %57
  %75 = load i32, i32* %2, align 4
  %76 = sext i32 %75 to i64
  %77 = getelementptr inbounds [100 x i32], [100 x i32]* %8, i64 0, i64 %76
  %78 = load i32, i32* %77, align 4
  %79 = add nsw i32 %78, 1
  store i32 %79, i32* %77, align 4
  br label %80

80:                                               ; preds = %74, %57
  br label %81

81:                                               ; preds = %80
  %82 = load i32, i32* %6, align 4
  %83 = add nsw i32 %82, 1
  store i32 %83, i32* %6, align 4
  br label %52

84:                                               ; preds = %52
  br label %85

85:                                               ; preds = %84
  %86 = load i32, i32* %4, align 4
  %87 = add nsw i32 %86, 1
  store i32 %87, i32* %4, align 4
  br label %46

88:                                               ; preds = %46
  br label %89

89:                                               ; preds = %88
  %90 = load i32, i32* %2, align 4
  %91 = add nsw i32 %90, 1
  store i32 %91, i32* %2, align 4
  br label %10

92:                                               ; preds = %22
  store i32 0, i32* %7, align 4
  br label %93

93:                                               ; preds = %103, %92
  %94 = load i32, i32* %7, align 4
  %95 = load i32, i32* %2, align 4
  %96 = icmp slt i32 %94, %95
  br i1 %96, label %97, label %106

97:                                               ; preds = %93
  %98 = load i32, i32* %7, align 4
  %99 = sext i32 %98 to i64
  %100 = getelementptr inbounds [100 x i32], [100 x i32]* %8, i64 0, i64 %99
  %101 = load i32, i32* %100, align 4
  %102 = call i32 (i8*, ...) @printf(i8* getelementptr inbounds ([4 x i8], [4 x i8]* @.str.1, i64 0, i64 0), i32 %101)
  br label %103

103:                                              ; preds = %97
  %104 = load i32, i32* %7, align 4
  %105 = add nsw i32 %104, 1
  store i32 %105, i32* %7, align 4
  br label %93

106:                                              ; preds = %93
  ret i32 0
}

; Function Attrs: argmemonly nounwind willreturn
declare void @llvm.memset.p0i8.i64(i8* nocapture writeonly, i8, i64, i1 immarg) #1

declare dso_local i32 @__isoc99_scanf(i8*, ...) #2

declare dso_local i32 @printf(i8*, ...) #2


!llvm.module.flags = !{!0}
!llvm.ident = !{!1}

!0 = !{i32 1, !"wchar_size", i32 4}
!1 = !{!"clang version 10.0.0-4ubuntu1 "}
